; Function Attrs: mustprogress nofree norecurse nosync nounwind willreturn memory(readwrite, inaccessiblemem: none) uwtable
define range(i32 -2, 1) i32 @deflateGetDictionary(ptr noundef readonly captures(address) %0, ptr noundef writeonly captures(address_is_null) %1, ptr noundef writeonly captures(address_is_null) %2) local_unnamed_addr #3 {
  %4 = icmp eq ptr %0, null
  br i1 %4, label %deflateStateCheck.exit.thread, label %5

5:                                                ; preds = %3
  %6 = getelementptr inbounds nuw i8, ptr %0, i64 64
  %7 = load ptr, ptr %6, align 8, !tbaa !13
  %8 = icmp eq ptr %7, null
  br i1 %8, label %deflateStateCheck.exit.thread, label %9

9:                                                ; preds = %5
  %10 = getelementptr inbounds nuw i8, ptr %0, i64 72
  %11 = load ptr, ptr %10, align 8, !tbaa !15
  %12 = icmp eq ptr %11, null
  br i1 %12, label %deflateStateCheck.exit.thread, label %13

13:                                               ; preds = %9
  %14 = getelementptr inbounds nuw i8, ptr %0, i64 56
  %15 = load ptr, ptr %14, align 8, !tbaa !16
  %16 = icmp eq ptr %15, null
  br i1 %16, label %deflateStateCheck.exit.thread, label %17

17:                                               ; preds = %13
  %18 = load ptr, ptr %15, align 8, !tbaa !17
  %.not.i = icmp eq ptr %18, %0
  br i1 %.not.i, label %19, label %deflateStateCheck.exit.thread

19:                                               ; preds = %17
  %20 = getelementptr inbounds nuw i8, ptr %15, i64 8
  %21 = load i32, ptr %20, align 8, !tbaa !26
  switch i32 %21, label %deflateStateCheck.exit.thread [
    i32 42, label %deflateStateCheck.exit
    i32 57, label %deflateStateCheck.exit
    i32 69, label %deflateStateCheck.exit
    i32 73, label %deflateStateCheck.exit
    i32 91, label %deflateStateCheck.exit
    i32 103, label %deflateStateCheck.exit
    i32 113, label %deflateStateCheck.exit
    i32 666, label %deflateStateCheck.exit
  ]

deflateStateCheck.exit:                           ; preds = %19, %19, %19, %19, %19, %19, %19, %19
  %22 = getelementptr inbounds nuw i8, ptr %15, i64 172
  %23 = load i32, ptr %22, align 4, !tbaa !60
  %24 = getelementptr inbounds nuw i8, ptr %15, i64 180
  %25 = load i32, ptr %24, align 4, !tbaa !62
  %26 = add i32 %25, %23
  %27 = getelementptr inbounds nuw i8, ptr %15, i64 80
  %28 = load i32, ptr %27, align 8, !tbaa !30
  %spec.select = tail call i32 @llvm.umin.i32(i32 %26, i32 %28)
  %29 = icmp ne ptr %1, null
  %30 = icmp ne i32 %spec.select, 0
  %or.cond = and i1 %29, %30
  br i1 %or.cond, label %31, label %41

31:                                               ; preds = %deflateStateCheck.exit
  %32 = getelementptr inbounds nuw i8, ptr %15, i64 96
  %33 = load ptr, ptr %32, align 8, !tbaa !36
  %34 = zext i32 %23 to i64
  %35 = getelementptr inbounds nuw i8, ptr %33, i64 %34
  %36 = zext i32 %25 to i64
  %37 = getelementptr inbounds nuw i8, ptr %35, i64 %36
  %38 = zext i32 %spec.select to i64
  %39 = sub nsw i64 0, %38
  %40 = getelementptr inbounds i8, ptr %37, i64 %39
  tail call void @llvm.memcpy.p0.p0.i64(ptr nonnull align 1 %1, ptr nonnull align 1 %40, i64 %38, i1 false)
  br label %41

41:                                               ; preds = %31, %deflateStateCheck.exit
  %.not24 = icmp eq ptr %2, null
  br i1 %.not24, label %deflateStateCheck.exit.thread, label %42

42:                                               ; preds = %41
  store i32 %spec.select, ptr %2, align 4, !tbaa !80
  br label %deflateStateCheck.exit.thread

deflateStateCheck.exit.thread:                    ; preds = %13, %17, %19, %3, %5, %9, %41, %42
  %.019 = phi i32 [ 0, %42 ], [ 0, %41 ], [ -2, %9 ], [ -2, %5 ], [ -2, %3 ], [ -2, %19 ], [ -2, %17 ], [ -2, %13 ]
  ret i32 %.019
}